target datalayout = "e-m:e-p270:32:32-p271:32:32-p272:64:64-i64:64-i128:128-f80:128-n8:16:32:64-S128"
target triple = "x86_64-pc-linux-gnu"

%struct._zend_refcounted_h = type { i32, %union.anon }
%union.anon = type { i32 }
%struct._zval_struct = type { %union._zend_value, %union.anon.3, %union.anon.6 }
%union._zend_value = type { i64 }
%union.anon.3 = type { i32 }
%union.anon.6 = type { i32 }
%struct._zend_string = type { %struct._zend_refcounted_h, i64, i64, [1 x i8] }

@.str.8 = private unnamed_addr constant [5 x i8] c"cost\00", align 1
@.str.17 = private unnamed_addr constant [9 x i8] c"$2y$%ld$\00", align 1

; Function Attrs: nounwind uwtable
define internal zeroext i1 @php_password_bcrypt_valid(ptr noundef %0) #0 {
  %2 = alloca ptr, align 8
  %3 = alloca ptr, align 8
  store ptr %0, ptr %2, align 8
  %4 = load ptr, ptr %2, align 8
  %5 = getelementptr inbounds %struct._zend_string, ptr %4, i32 0, i32 3
  %6 = getelementptr inbounds [1 x i8], ptr %5, i64 0, i64 0
  store ptr %6, ptr %3, align 8
  %7 = load ptr, ptr %2, align 8
  %8 = getelementptr inbounds %struct._zend_string, ptr %7, i32 0, i32 2
  %9 = load i64, ptr %8, align 8
  %10 = icmp eq i64 %9, 60
  br i1 %10, label %11, label %29

11:                                               ; preds = %1
  %12 = load ptr, ptr %3, align 8
  %13 = getelementptr inbounds i8, ptr %12, i64 0
  %14 = load i8, ptr %13, align 1
  %15 = sext i8 %14 to i32
  %16 = icmp eq i32 %15, 36
  br i1 %16, label %17, label %29

17:                                               ; preds = %11
  %18 = load ptr, ptr %3, align 8
  %19 = getelementptr inbounds i8, ptr %18, i64 1
  %20 = load i8, ptr %19, align 1
  %21 = sext i8 %20 to i32
  %22 = icmp eq i32 %21, 50
  br i1 %22, label %23, label %29

23:                                               ; preds = %17
  %24 = load ptr, ptr %3, align 8
  %25 = getelementptr inbounds i8, ptr %24, i64 2
  %26 = load i8, ptr %25, align 1
  %27 = sext i8 %26 to i32
  %28 = icmp eq i32 %27, 121
  br label %29

29:                                               ; preds = %23, %17, %11, %1
  %30 = phi i1 [ false, %17 ], [ false, %11 ], [ false, %1 ], [ %28, %23 ]
  ret i1 %30
}

; Function Attrs: nounwind uwtable
define internal zeroext i1 @php_password_bcrypt_needs_rehash(ptr noundef %0, ptr noundef %1) #0 {
  %3 = alloca ptr, align 8
  %4 = alloca ptr, align 8
  %5 = alloca i1, align 1
  %6 = alloca ptr, align 8
  %7 = alloca ptr, align 8
  %8 = alloca ptr, align 8
  %9 = alloca i64, align 8
  %10 = alloca i64, align 8
  store ptr %0, ptr %6, align 8
  store ptr %1, ptr %7, align 8
  store i64 12, ptr %9, align 8
  store i64 12, ptr %10, align 8
  %11 = load ptr, ptr %6, align 8
  %12 = call zeroext i1 @php_password_bcrypt_valid(ptr noundef %11)
  br i1 %12, label %14, label %13

13:                                               ; preds = %2
  store i1 true, ptr %5, align 1
  br label %45

14:                                               ; preds = %2
  %15 = load ptr, ptr %6, align 8
  %16 = getelementptr inbounds %struct._zend_string, ptr %15, i32 0, i32 3
  %17 = getelementptr inbounds [1 x i8], ptr %16, i64 0, i64 0
  %18 = call i32 (ptr, ptr, ...) @__isoc99_sscanf(ptr noundef %17, ptr noundef @.str.17, ptr noundef %9) #9
  %19 = load ptr, ptr %7, align 8
  %20 = icmp ne ptr %19, null
  br i1 %20, label %21, label %41

21:                                               ; preds = %14
  %22 = load ptr, ptr %7, align 8
  %23 = call ptr @zend_hash_str_find(ptr noundef %22, ptr noundef @.str.8, i64 noundef 4)
  store ptr %23, ptr %8, align 8
  %24 = icmp ne ptr %23, null
  br i1 %24, label %25, label %41

25:                                               ; preds = %21
  %26 = load ptr, ptr %8, align 8
  store ptr %26, ptr %4, align 8
  %27 = load ptr, ptr %4, align 8
  store ptr %27, ptr %3, align 8
  %28 = load ptr, ptr %3, align 8
  %29 = getelementptr inbounds %struct._zval_struct, ptr %28, i32 0, i32 1
  %30 = load i8, ptr %29, align 8
  %31 = zext i8 %30 to i32
  %32 = icmp eq i32 %31, 4
  br i1 %32, label %33, label %36

33:                                               ; preds = %25
  %34 = load ptr, ptr %4, align 8
  %35 = load i64, ptr %34, align 8
  br label %39

36:                                               ; preds = %25
  %37 = load ptr, ptr %4, align 8
  %38 = call i64 @zval_get_long_func(ptr noundef %37, i1 noundef zeroext false) #9
  br label %39

39:                                               ; preds = %36, %33
  %40 = phi i64 [ %35, %33 ], [ %38, %36 ]
  store i64 %40, ptr %10, align 8
  br label %41

41:                                               ; preds = %39, %21, %14
  %42 = load i64, ptr %9, align 8
  %43 = load i64, ptr %10, align 8
  %44 = icmp ne i64 %42, %43
  store i1 %44, ptr %5, align 1
  br label %45

45:                                               ; preds = %41, %13
  %46 = load i1, ptr %5, align 1
  ret i1 %46
}