; Function Attrs: nounwind uwtable
define internal zeroext i1 @php_password_bcrypt_needs_rehash(ptr nocapture noundef readonly %0, ptr noundef %1) #0 {
  %3 = alloca i64, align 8
  store i64 12, ptr %3, align 8
  %4 = getelementptr inbounds i8, ptr %0, i64 16
  %5 = load i64, ptr %4, align 8
  %6 = icmp eq i64 %5, 60
  br i1 %6, label %7, label %php_password_bcrypt_valid.exit.thread

7:                                                ; preds = %2
  %8 = getelementptr inbounds i8, ptr %0, i64 24
  %9 = load i8, ptr %8, align 1
  %10 = icmp eq i8 %9, 36
  br i1 %10, label %11, label %php_password_bcrypt_valid.exit.thread

11:                                               ; preds = %7
  %12 = getelementptr inbounds i8, ptr %0, i64 25
  %13 = load i8, ptr %12, align 1
  %14 = icmp eq i8 %13, 50
  br i1 %14, label %php_password_bcrypt_valid.exit, label %php_password_bcrypt_valid.exit.thread

php_password_bcrypt_valid.exit:                   ; preds = %11
  %15 = getelementptr inbounds i8, ptr %0, i64 26
  %16 = load i8, ptr %15, align 1
  %17 = icmp eq i8 %16, 121
  br i1 %17, label %18, label %php_password_bcrypt_valid.exit.thread

18:                                               ; preds = %php_password_bcrypt_valid.exit
  %19 = call i32 (ptr, ptr, ...) @__isoc99_sscanf(ptr noundef nonnull %8, ptr noundef nonnull @.str.17, ptr noundef nonnull %3) #12
  %.not = icmp eq ptr %1, null
  br i1 %.not, label %30, label %20

20:                                               ; preds = %18
  %21 = call ptr @zend_hash_str_find(ptr noundef nonnull %1, ptr noundef nonnull @.str.8, i64 noundef 4) #12
  %.not13 = icmp eq ptr %21, null
  br i1 %.not13, label %30, label %22

22:                                               ; preds = %20
  %23 = getelementptr inbounds i8, ptr %21, i64 8
  %24 = load i8, ptr %23, align 8
  %25 = icmp eq i8 %24, 4
  br i1 %25, label %26, label %28

26:                                               ; preds = %22
  %27 = load i64, ptr %21, align 8
  br label %30

28:                                               ; preds = %22
  %29 = call i64 @zval_get_long_func(ptr noundef nonnull %21, i1 noundef zeroext false) #12
  br label %30

30:                                               ; preds = %26, %28, %20, %18
  %.0 = phi i64 [ 12, %20 ], [ 12, %18 ], [ %27, %26 ], [ %29, %28 ]
  %31 = load i64, ptr %3, align 8
  %32 = icmp ne i64 %31, %.0
  br label %php_password_bcrypt_valid.exit.thread

php_password_bcrypt_valid.exit.thread:            ; preds = %2, %7, %11, %php_password_bcrypt_valid.exit, %30
  %.010 = phi i1 [ %32, %30 ], [ true, %php_password_bcrypt_valid.exit ], [ true, %11 ], [ true, %7 ], [ true, %2 ]
  ret i1 %.010
}